; Function Attrs: mustprogress nounwind uwtable
define internal fastcc void @_ZSt25__unguarded_linear_insertIN9__gnu_cxx17__normal_iteratorIPN5vcpkg3msg10RawMessageESt6vectorIS4_SaIS4_EEEENS0_5__ops14_Val_comp_iterIZNS3_27get_sorted_english_messagesEvE13MessageSorterEEEvT_T0_(ptr %0) unnamed_addr #0 personality ptr @__gxx_personality_v0 {
  %2 = alloca %"struct.vcpkg::msg::RawMessage", align 8
  call void @llvm.memcpy.p0.p0.i64(ptr noundef nonnull align 8 dereferenceable(32) %2, ptr noundef nonnull align 8 dereferenceable(32) %0, i64 32, i1 false)
  %3 = getelementptr inbounds i8, ptr %2, i64 32
  %4 = getelementptr inbounds i8, ptr %0, i64 32
  call void @_ZNSt7__cxx1112basic_stringIcSt11char_traitsIcESaIcEEC1EOS4_(ptr noundef nonnull align 8 dereferenceable(32) %3, ptr noundef nonnull align 8 dereferenceable(32) %4) #25
  %5 = getelementptr inbounds i8, ptr %2, i64 8
  %.sroa.0.07 = getelementptr inbounds i8, ptr %0, i64 -64
  %.val8 = load ptr, ptr %2, align 8
  %.val19 = load i64, ptr %5, align 8
  %.val3.i10 = load ptr, ptr %.sroa.0.07, align 8
  %6 = getelementptr i8, ptr %0, i64 -56
  %.val4.i11 = load i64, ptr %6, align 8
  %7 = call noundef zeroext i1 @_ZN5vcpkgltENS_10StringViewES0_(ptr %.val8, i64 %.val19, ptr %.val3.i10, i64 %.val4.i11) #25
  br i1 %7, label %.lr.ph, label %._crit_edge

.lr.ph:                                           ; preds = %1, %.lr.ph
  %.sroa.0.013 = phi ptr [ %.sroa.0.0, %.lr.ph ], [ %.sroa.0.07, %1 ]
  %.sroa.04.012 = phi ptr [ %.sroa.0.013, %.lr.ph ], [ %0, %1 ]
  call void @llvm.memcpy.p0.p0.i64(ptr noundef nonnull align 8 dereferenceable(32) %.sroa.04.012, ptr noundef nonnull align 8 dereferenceable(32) %.sroa.0.013, i64 32, i1 false)
  %8 = getelementptr inbounds i8, ptr %.sroa.04.012, i64 32
  %9 = getelementptr inbounds i8, ptr %.sroa.04.012, i64 -32
  %10 = call noundef nonnull align 8 dereferenceable(32) ptr @_ZNSt7__cxx1112basic_stringIcSt11char_traitsIcESaIcEEaSEOS4_(ptr noundef nonnull align 8 dereferenceable(32) %8, ptr noundef nonnull align 8 dereferenceable(32) %9) #25
  %.sroa.0.0 = getelementptr inbounds i8, ptr %.sroa.0.013, i64 -64
  %.val = load ptr, ptr %2, align 8
  %.val1 = load i64, ptr %5, align 8
  %.val3.i = load ptr, ptr %.sroa.0.0, align 8
  %11 = getelementptr i8, ptr %.sroa.0.013, i64 -56
  %.val4.i = load i64, ptr %11, align 8
  %12 = call noundef zeroext i1 @_ZN5vcpkgltENS_10StringViewES0_(ptr %.val, i64 %.val1, ptr %.val3.i, i64 %.val4.i) #25
  br i1 %12, label %.lr.ph, label %._crit_edge, !llvm.loop !168

._crit_edge:                                      ; preds = %.lr.ph, %1
  %.sroa.04.0.lcssa = phi ptr [ %0, %1 ], [ %.sroa.0.013, %.lr.ph ]
  call void @llvm.memcpy.p0.p0.i64(ptr noundef nonnull align 8 dereferenceable(32) %.sroa.04.0.lcssa, ptr noundef nonnull align 8 dereferenceable(32) %2, i64 32, i1 false)
  %13 = getelementptr inbounds i8, ptr %.sroa.04.0.lcssa, i64 32
  %14 = call noundef nonnull align 8 dereferenceable(32) ptr @_ZNSt7__cxx1112basic_stringIcSt11char_traitsIcESaIcEEaSEOS4_(ptr noundef nonnull align 8 dereferenceable(32) %13, ptr noundef nonnull align 8 dereferenceable(32) %3) #25
  call void @_ZNSt7__cxx1112basic_stringIcSt11char_traitsIcESaIcEED1Ev(ptr noundef nonnull align 8 dereferenceable(32) %3) #25
  ret void
}